; Function Attrs: mustprogress nounwind uwtable
define hidden void @_ZN17ModelRegistrationD2Ev(ptr nocapture noundef nonnull align 8 dereferenceable(64) %0) unnamed_addr #5 align 2 personality ptr @__gxx_personality_v0 {
  store ptr getelementptr inbounds inrange(-16, 16) (i8, ptr @_ZTV17ModelRegistration, i64 16), ptr %0, align 8
  %2 = getelementptr inbounds i8, ptr %0, i64 40
  %3 = load ptr, ptr %2, align 8
  %.not.i.i.i = icmp eq ptr %3, null
  br i1 %.not.i.i.i, label %_ZNSt6vectorIN2cv7Point3_IfEESaIS2_EED2Ev.exit, label %4

4:                                                ; preds = %1
  tail call void @_ZdlPv(ptr noundef nonnull %3) #15
  br label %_ZNSt6vectorIN2cv7Point3_IfEESaIS2_EED2Ev.exit

_ZNSt6vectorIN2cv7Point3_IfEESaIS2_EED2Ev.exit:   ; preds = %1, %4
  %5 = getelementptr inbounds i8, ptr %0, i64 16
  %6 = load ptr, ptr %5, align 8
  %.not.i.i.i1 = icmp eq ptr %6, null
  br i1 %.not.i.i.i1, label %_ZNSt6vectorIN2cv6Point_IfEESaIS2_EED2Ev.exit, label %7

7:                                                ; preds = %_ZNSt6vectorIN2cv7Point3_IfEESaIS2_EED2Ev.exit
  tail call void @_ZdlPv(ptr noundef nonnull %6) #15
  br label %_ZNSt6vectorIN2cv6Point_IfEESaIS2_EED2Ev.exit

_ZNSt6vectorIN2cv6Point_IfEESaIS2_EED2Ev.exit:    ; preds = %_ZNSt6vectorIN2cv7Point3_IfEESaIS2_EED2Ev.exit, %7
  ret void
}